target datalayout = "e-m:e-p270:32:32-p271:32:32-p272:64:64-i64:64-i128:128-f80:128-n8:16:32:64-S128"
target triple = "x86_64-pc-linux-gnu"

%struct.expert_field = type { i32, i32 }
%struct._packet_info = type { ptr, ptr, i32, i32, %struct.nstime_t, %struct.nstime_t, %struct.nstime_t, i8, ptr, ptr, ptr, ptr, %struct._address, %struct._address, %struct._address, %struct._address, %struct._address, %struct._address, i32, ptr, i8, [3 x i8], %struct.anon.1, i32, i32, i32, i32, ptr, i8, ptr, ptr, i16, i16, i32, i32, i16, i32, i32, ptr, ptr, ptr, i8, i8, i16, i16, i16, i32, i16, i16, ptr, ptr, ptr, ptr, ptr, i32, i32 }
%struct.nstime_t = type { i64, i32 }
%struct._address = type { i32, i32, ptr, ptr }
%struct.anon.1 = type { i8, [3 x i8] }
%struct._proto_node = type { ptr, ptr, ptr, ptr, ptr, ptr, ptr }
%struct.field_info = type { ptr, i32, i32, i32, i32, i32, i32, ptr, ptr, ptr, i32, i32 }

@hf_payload_length_field_8bit = internal global i32 0, align 4
@hf_payload_length_field_16bit = internal global i32 0, align 4
@hf_payload_length_field_32bit = internal global i32 0, align 4
@ei_someip_payload_config_error = internal global %struct.expert_field zeroinitializer, align 4
@.str.357 = private unnamed_addr constant [33 x i8] c" [SOME/IP: Payload Config Error]\00", align 1
@.str.364 = private unnamed_addr constant [70 x i8] c"SOME/IP: Payload: length of length field does not make sense: %d bits\00", align 1

; Function Attrs: inlinehint nounwind null_pointer_is_valid sspstrong uwtable
define internal void @proto_item_set_hidden(ptr noundef %0) #5 {
  %2 = alloca ptr, align 8
  store ptr %0, ptr %2, align 8
  %3 = load ptr, ptr %2, align 8
  %4 = icmp ne ptr %3, null
  br i1 %4, label %5, label %24

5:                                                ; preds = %1
  br label %6

6:                                                ; preds = %5
  %7 = load ptr, ptr %2, align 8
  %8 = getelementptr inbounds nuw %struct._proto_node, ptr %7, i32 0, i32 5
  %9 = load ptr, ptr %8, align 8
  %10 = icmp ne ptr %9, null
  br i1 %10, label %11, label %22

11:                                               ; preds = %6
  %12 = load ptr, ptr %2, align 8
  %13 = getelementptr inbounds nuw %struct._proto_node, ptr %12, i32 0, i32 5
  %14 = load ptr, ptr %13, align 8
  %15 = getelementptr inbounds nuw %struct.field_info, ptr %14, i32 0, i32 6
  %16 = load i32, ptr %15, align 4
  %17 = or i32 %16, 1
  %18 = load ptr, ptr %2, align 8
  %19 = getelementptr inbounds nuw %struct._proto_node, ptr %18, i32 0, i32 5
  %20 = load ptr, ptr %19, align 8
  %21 = getelementptr inbounds nuw %struct.field_info, ptr %20, i32 0, i32 6
  store i32 %17, ptr %21, align 4
  br label %22

22:                                               ; preds = %11, %6
  br label %23

23:                                               ; preds = %22
  br label %24

24:                                               ; preds = %23, %1
  ret void
}

; Function Attrs: null_pointer_is_valid sspstrong uwtable
define internal i64 @dissect_someip_payload_length_field(ptr noundef %0, ptr noundef %1, ptr noundef %2, i32 noundef %3, i32 noundef %4) #0 {
  %6 = alloca i64, align 8
  %7 = alloca ptr, align 8
  %8 = alloca ptr, align 8
  %9 = alloca ptr, align 8
  %10 = alloca i32, align 4
  %11 = alloca i32, align 4
  %12 = alloca ptr, align 8
  %13 = alloca i32, align 4
  %14 = alloca i32, align 4
  store ptr %0, ptr %7, align 8
  store ptr %1, ptr %8, align 8
  store ptr %2, ptr %9, align 8
  store i32 %3, ptr %10, align 4
  store i32 %4, ptr %11, align 4
  call void @llvm.lifetime.start.p0(i64 8, ptr %12) #19
  call void @llvm.lifetime.start.p0(i64 4, ptr %13) #19
  store i32 0, ptr %13, align 4
  %15 = load i32, ptr %11, align 4
  switch i32 %15, label %43 [
    i32 8, label %16
    i32 16, label %25
    i32 32, label %34
  ]

16:                                               ; preds = %5
  %17 = load ptr, ptr %9, align 8
  %18 = load i32, ptr @hf_payload_length_field_8bit, align 4
  %19 = load ptr, ptr %7, align 8
  %20 = load i32, ptr %10, align 4
  %21 = load i32, ptr %11, align 4
  %22 = sdiv i32 %21, 8
  %23 = call ptr @proto_tree_add_item_ret_uint(ptr noundef %17, i32 noundef %18, ptr noundef %19, i32 noundef %20, i32 noundef %22, i32 noundef 0, ptr noundef %13)
  store ptr %23, ptr %12, align 8
  %24 = load ptr, ptr %12, align 8
  call void @proto_item_set_hidden(ptr noundef %24)
  br label %53

25:                                               ; preds = %5
  %26 = load ptr, ptr %9, align 8
  %27 = load i32, ptr @hf_payload_length_field_16bit, align 4
  %28 = load ptr, ptr %7, align 8
  %29 = load i32, ptr %10, align 4
  %30 = load i32, ptr %11, align 4
  %31 = sdiv i32 %30, 8
  %32 = call ptr @proto_tree_add_item_ret_uint(ptr noundef %26, i32 noundef %27, ptr noundef %28, i32 noundef %29, i32 noundef %31, i32 noundef 0, ptr noundef %13)
  store ptr %32, ptr %12, align 8
  %33 = load ptr, ptr %12, align 8
  call void @proto_item_set_hidden(ptr noundef %33)
  br label %53

34:                                               ; preds = %5
  %35 = load ptr, ptr %9, align 8
  %36 = load i32, ptr @hf_payload_length_field_32bit, align 4
  %37 = load ptr, ptr %7, align 8
  %38 = load i32, ptr %10, align 4
  %39 = load i32, ptr %11, align 4
  %40 = sdiv i32 %39, 8
  %41 = call ptr @proto_tree_add_item_ret_uint(ptr noundef %35, i32 noundef %36, ptr noundef %37, i32 noundef %38, i32 noundef %40, i32 noundef 0, ptr noundef %13)
  store ptr %41, ptr %12, align 8
  %42 = load ptr, ptr %12, align 8
  call void @proto_item_set_hidden(ptr noundef %42)
  br label %53

43:                                               ; preds = %5
  %44 = load ptr, ptr %9, align 8
  %45 = load ptr, ptr %8, align 8
  %46 = load ptr, ptr %7, align 8
  %47 = load i32, ptr %10, align 4
  %48 = load i32, ptr %11, align 4
  %49 = call ptr (ptr, ptr, ptr, ptr, i32, i32, ptr, ...) @proto_tree_add_expert_format(ptr noundef %44, ptr noundef %45, ptr noundef @ei_someip_payload_config_error, ptr noundef %46, i32 noundef %47, i32 noundef 0, ptr noundef @.str.364, i32 noundef %48)
  %50 = load ptr, ptr %8, align 8
  %51 = getelementptr inbounds nuw %struct._packet_info, ptr %50, i32 0, i32 1
  %52 = load ptr, ptr %51, align 8
  call void @col_append_str(ptr noundef %52, i32 noundef 25, ptr noundef @.str.357)
  store i64 -1, ptr %6, align 8
  store i32 1, ptr %14, align 4
  br label %56

53:                                               ; preds = %34, %25, %16
  %54 = load i32, ptr %13, align 4
  %55 = zext i32 %54 to i64
  store i64 %55, ptr %6, align 8
  store i32 1, ptr %14, align 4
  br label %56

56:                                               ; preds = %53, %43
  call void @llvm.lifetime.end.p0(i64 4, ptr %13) #19
  call void @llvm.lifetime.end.p0(i64 8, ptr %12) #19
  %57 = load i64, ptr %6, align 8
  ret i64 %57
}