; Function Attrs: null_pointer_is_valid sspstrong uwtable
define internal fastcc range(i64 -1, 4294967296) i64 @dissect_someip_payload_length_field(ptr noundef %0, ptr noundef %1, ptr noundef %2, i32 noundef %3, i32 noundef %4) unnamed_addr #0 {
  %6 = alloca i32, align 4
  call void @llvm.lifetime.start.p0(i64 4, ptr nonnull %6) #19
  store i32 0, ptr %6, align 4
  switch i32 %4, label %25 [
    i32 8, label %7
    i32 16, label %13
    i32 32, label %19
  ]

7:                                                ; preds = %5
  %8 = load i32, ptr @hf_payload_length_field_8bit, align 4
  %9 = call ptr @proto_tree_add_item_ret_uint(ptr noundef %2, i32 noundef %8, ptr noundef %0, i32 noundef %3, i32 noundef 1, i32 noundef 0, ptr noundef nonnull %6)
  %.not.i = icmp eq ptr %9, null
  br i1 %.not.i, label %proto_item_set_hidden.exit, label %10

10:                                               ; preds = %7
  %11 = getelementptr inbounds nuw i8, ptr %9, i64 40
  %12 = load ptr, ptr %11, align 8
  %.not5.i = icmp eq ptr %12, null
  br i1 %.not5.i, label %proto_item_set_hidden.exit, label %proto_item_set_hidden.exit.sink.split

13:                                               ; preds = %5
  %14 = load i32, ptr @hf_payload_length_field_16bit, align 4
  %15 = call ptr @proto_tree_add_item_ret_uint(ptr noundef %2, i32 noundef %14, ptr noundef %0, i32 noundef %3, i32 noundef 2, i32 noundef 0, ptr noundef nonnull %6)
  %.not.i23 = icmp eq ptr %15, null
  br i1 %.not.i23, label %proto_item_set_hidden.exit, label %16

16:                                               ; preds = %13
  %17 = getelementptr inbounds nuw i8, ptr %15, i64 40
  %18 = load ptr, ptr %17, align 8
  %.not5.i24 = icmp eq ptr %18, null
  br i1 %.not5.i24, label %proto_item_set_hidden.exit, label %proto_item_set_hidden.exit.sink.split

19:                                               ; preds = %5
  %20 = load i32, ptr @hf_payload_length_field_32bit, align 4
  %21 = call ptr @proto_tree_add_item_ret_uint(ptr noundef %2, i32 noundef %20, ptr noundef %0, i32 noundef %3, i32 noundef 4, i32 noundef 0, ptr noundef nonnull %6)
  %.not.i26 = icmp eq ptr %21, null
  br i1 %.not.i26, label %proto_item_set_hidden.exit, label %22

22:                                               ; preds = %19
  %23 = getelementptr inbounds nuw i8, ptr %21, i64 40
  %24 = load ptr, ptr %23, align 8
  %.not5.i27 = icmp eq ptr %24, null
  br i1 %.not5.i27, label %proto_item_set_hidden.exit, label %proto_item_set_hidden.exit.sink.split

25:                                               ; preds = %5
  %26 = tail call ptr (ptr, ptr, ptr, ptr, i32, i32, ptr, ...) @proto_tree_add_expert_format(ptr noundef %2, ptr noundef %1, ptr noundef nonnull @ei_someip_payload_config_error, ptr noundef %0, i32 noundef %3, i32 noundef 0, ptr noundef nonnull @.str.364, i32 noundef %4)
  %27 = getelementptr inbounds nuw i8, ptr %1, i64 8
  %28 = load ptr, ptr %27, align 8
  tail call void @col_append_str(ptr noundef %28, i32 noundef 25, ptr noundef nonnull @.str.357)
  br label %34

proto_item_set_hidden.exit.sink.split:            ; preds = %22, %16, %10
  %.sink31 = phi ptr [ %12, %10 ], [ %18, %16 ], [ %24, %22 ]
  %29 = getelementptr inbounds nuw i8, ptr %.sink31, i64 28
  %30 = load i32, ptr %29, align 4
  %31 = or i32 %30, 1
  store i32 %31, ptr %29, align 4
  br label %proto_item_set_hidden.exit

proto_item_set_hidden.exit:                       ; preds = %proto_item_set_hidden.exit.sink.split, %22, %19, %16, %13, %10, %7
  %32 = load i32, ptr %6, align 4
  %33 = zext i32 %32 to i64
  br label %34

34:                                               ; preds = %proto_item_set_hidden.exit, %25
  %.0 = phi i64 [ -1, %25 ], [ %33, %proto_item_set_hidden.exit ]
  call void @llvm.lifetime.end.p0(i64 4, ptr nonnull %6) #19
  ret i64 %.0
}